target datalayout = "e-m:e-p270:32:32-p271:32:32-p272:64:64-i64:64-i128:128-f80:128-n8:16:32:64-S128"
target triple = "x86_64-pc-linux-gnu"

@.str.28 = private unnamed_addr constant [71 x i8] c"cli_bcomp_compare_check: unable to normalize temp buffer, params null\0A\00", align 1
@.str.29 = private unnamed_addr constant [90 x i8] c"cli_bcomp_compare_check: unable to allocate memory for whitespace normalized temp buffer\0A\00", align 1
@.str.30 = private unnamed_addr constant [79 x i8] c"cli_bcomp_compare_check: unable to allocate memory for normalized temp buffer\0A\00", align 1
@.str.31 = private unnamed_addr constant [69 x i8] c"cli_bcomp_compare_check: unable to reallocate memory for hex buffer\0A\00", align 1

; Function Attrs: nounwind uwtable
define ptr @cli_bcomp_normalize_buffer(ptr noundef %0, i32 noundef %1, ptr noundef %2, i16 noundef zeroext %3, i16 noundef zeroext %4) #0 {
  %6 = alloca ptr, align 8
  %7 = alloca ptr, align 8
  %8 = alloca i32, align 4
  %9 = alloca ptr, align 8
  %10 = alloca i16, align 2
  %11 = alloca i16, align 2
  %12 = alloca i32, align 4
  %13 = alloca i32, align 4
  %14 = alloca i32, align 4
  %15 = alloca i16, align 2
  %16 = alloca ptr, align 8
  %17 = alloca ptr, align 8
  store ptr %0, ptr %7, align 8
  store i32 %1, ptr %8, align 4
  store ptr %2, ptr %9, align 8
  store i16 %3, ptr %10, align 2
  store i16 %4, ptr %11, align 2
  store i32 0, ptr %12, align 4
  store i32 0, ptr %13, align 4
  store i32 0, ptr %14, align 4
  store i16 0, ptr %15, align 2
  store ptr null, ptr %16, align 8
  %18 = load ptr, ptr %7, align 8
  %19 = icmp ne ptr %18, null
  br i1 %19, label %21, label %20

20:                                               ; preds = %5
  call void (ptr, ...) @cli_errmsg(ptr noundef @.str.28)
  store ptr null, ptr %6, align 8
  br label %310

21:                                               ; preds = %5
  %22 = load i16, ptr %11, align 2
  %23 = icmp ne i16 %22, 0
  br i1 %23, label %24, label %86

24:                                               ; preds = %21
  store i32 0, ptr %14, align 4
  br label %25

25:                                               ; preds = %49, %24
  %26 = load i32, ptr %14, align 4
  %27 = load i32, ptr %8, align 4
  %28 = icmp ult i32 %26, %27
  br i1 %28, label %29, label %52

29:                                               ; preds = %25
  %30 = call ptr @__ctype_b_loc() #10
  %31 = load ptr, ptr %30, align 8
  %32 = load ptr, ptr %7, align 8
  %33 = load i32, ptr %14, align 4
  %34 = zext i32 %33 to i64
  %35 = getelementptr inbounds i8, ptr %32, i64 %34
  %36 = load i8, ptr %35, align 1
  %37 = zext i8 %36 to i32
  %38 = sext i32 %37 to i64
  %39 = getelementptr inbounds i16, ptr %31, i64 %38
  %40 = load i16, ptr %39, align 2
  %41 = zext i16 %40 to i32
  %42 = and i32 %41, 8192
  %43 = icmp ne i32 %42, 0
  br i1 %43, label %44, label %47

44:                                               ; preds = %29
  %45 = load i32, ptr %13, align 4
  %46 = add i32 %45, 1
  store i32 %46, ptr %13, align 4
  br label %48

47:                                               ; preds = %29
  br label %52

48:                                               ; preds = %44
  br label %49

49:                                               ; preds = %48
  %50 = load i32, ptr %14, align 4
  %51 = add i32 %50, 1
  store i32 %51, ptr %14, align 4
  br label %25

52:                                               ; preds = %47, %25
  %53 = load i32, ptr %8, align 4
  %54 = load i32, ptr %13, align 4
  %55 = sub i32 %53, %54
  store i32 %55, ptr %8, align 4
  %56 = load i32, ptr %8, align 4
  %57 = add i32 %56, 1
  %58 = zext i32 %57 to i64
  %59 = call ptr @cli_max_calloc(i64 noundef %58, i64 noundef 1)
  store ptr %59, ptr %16, align 8
  %60 = load ptr, ptr %16, align 8
  %61 = icmp eq ptr null, %60
  br i1 %61, label %62, label %63

62:                                               ; preds = %52
  call void (ptr, ...) @cli_errmsg(ptr noundef @.str.29)
  store ptr null, ptr %6, align 8
  br label %310

63:                                               ; preds = %52
  %64 = load ptr, ptr %16, align 8
  %65 = load i32, ptr %8, align 4
  %66 = add i32 %65, 1
  %67 = zext i32 %66 to i64
  call void @llvm.memset.p0.i64(ptr align 1 %64, i8 48, i64 %67, i1 false)
  %68 = load ptr, ptr %16, align 8
  %69 = load ptr, ptr %7, align 8
  %70 = load i32, ptr %13, align 4
  %71 = zext i32 %70 to i64
  %72 = getelementptr inbounds i8, ptr %69, i64 %71
  %73 = load i32, ptr %8, align 4
  %74 = zext i32 %73 to i64
  call void @llvm.memcpy.p0.p0.i64(ptr align 1 %68, ptr align 1 %72, i64 %74, i1 false)
  %75 = load ptr, ptr %16, align 8
  %76 = load i32, ptr %8, align 4
  %77 = zext i32 %76 to i64
  %78 = getelementptr inbounds i8, ptr %75, i64 %77
  store i8 0, ptr %78, align 1
  %79 = load ptr, ptr %9, align 8
  %80 = icmp ne ptr %79, null
  br i1 %80, label %81, label %84

81:                                               ; preds = %63
  %82 = load i32, ptr %13, align 4
  %83 = load ptr, ptr %9, align 8
  store i32 %82, ptr %83, align 4
  br label %84

84:                                               ; preds = %81, %63
  %85 = load ptr, ptr %16, align 8
  store ptr %85, ptr %6, align 8
  br label %310

86:                                               ; preds = %21
  %87 = load i16, ptr %10, align 2
  %88 = zext i16 %87 to i32
  %89 = and i32 %88, 15
  %90 = trunc i32 %89 to i16
  store i16 %90, ptr %15, align 2
  %91 = load i16, ptr %15, align 2
  %92 = zext i16 %91 to i32
  %93 = and i32 %92, 1
  %94 = icmp ne i32 %93, 0
  br i1 %94, label %100, label %95

95:                                               ; preds = %86
  %96 = load i16, ptr %15, align 2
  %97 = zext i16 %96 to i32
  %98 = and i32 %97, 8
  %99 = icmp ne i32 %98, 0
  br i1 %99, label %100, label %308

100:                                              ; preds = %95, %86
  %101 = load i32, ptr %8, align 4
  %102 = urem i32 %101, 2
  %103 = icmp eq i32 %102, 0
  br i1 %103, label %104, label %106

104:                                              ; preds = %100
  %105 = load i32, ptr %8, align 4
  br label %109

106:                                              ; preds = %100
  %107 = load i32, ptr %8, align 4
  %108 = add i32 %107, 1
  br label %109

109:                                              ; preds = %106, %104
  %110 = phi i32 [ %105, %104 ], [ %108, %106 ]
  store i32 %110, ptr %12, align 4
  %111 = load i32, ptr %12, align 4
  %112 = add i32 %111, 1
  %113 = zext i32 %112 to i64
  %114 = call ptr @cli_max_calloc(i64 noundef %113, i64 noundef 1)
  store ptr %114, ptr %16, align 8
  %115 = load ptr, ptr %16, align 8
  %116 = icmp eq ptr null, %115
  br i1 %116, label %117, label %118

117:                                              ; preds = %109
  call void (ptr, ...) @cli_errmsg(ptr noundef @.str.30)
  store ptr null, ptr %6, align 8
  br label %310

118:                                              ; preds = %109
  %119 = load i32, ptr %12, align 4
  %120 = add i32 %119, 1
  %121 = zext i32 %120 to i64
  %122 = call ptr @cli_max_calloc(i64 noundef %121, i64 noundef 1)
  store ptr %122, ptr %17, align 8
  %123 = load ptr, ptr %17, align 8
  %124 = icmp eq ptr null, %123
  br i1 %124, label %125, label %127

125:                                              ; preds = %118
  %126 = load ptr, ptr %16, align 8
  call void @free(ptr noundef %126) #8
  call void (ptr, ...) @cli_errmsg(ptr noundef @.str.31)
  store ptr null, ptr %6, align 8
  br label %310

127:                                              ; preds = %118
  %128 = load ptr, ptr %16, align 8
  %129 = load i32, ptr %12, align 4
  %130 = add i32 %129, 1
  %131 = zext i32 %130 to i64
  call void @llvm.memset.p0.i64(ptr align 1 %128, i8 48, i64 %131, i1 false)
  %132 = load ptr, ptr %17, align 8
  %133 = load i32, ptr %12, align 4
  %134 = add i32 %133, 1
  %135 = zext i32 %134 to i64
  call void @llvm.memset.p0.i64(ptr align 1 %132, i8 48, i64 %135, i1 false)
  %136 = load i32, ptr %8, align 4
  %137 = icmp eq i32 %136, 1
  br i1 %137, label %138, label %144

138:                                              ; preds = %127
  %139 = load ptr, ptr %7, align 8
  %140 = getelementptr inbounds i8, ptr %139, i64 0
  %141 = load i8, ptr %140, align 1
  %142 = load ptr, ptr %16, align 8
  %143 = getelementptr inbounds i8, ptr %142, i64 0
  store i8 %141, ptr %143, align 1
  br label %302

144:                                              ; preds = %127
  %145 = load i32, ptr %12, align 4
  %146 = load i32, ptr %8, align 4
  %147 = add i32 %146, 1
  %148 = icmp eq i32 %145, %147
  br i1 %148, label %149, label %173

149:                                              ; preds = %144
  %150 = load i16, ptr %10, align 2
  store i16 %150, ptr %15, align 2
  %151 = load ptr, ptr %7, align 8
  %152 = load i16, ptr %15, align 2
  %153 = load i32, ptr %8, align 4
  %154 = call zeroext i16 @cli_bcomp_chk_hex(ptr noundef %151, i16 noundef zeroext %152, i32 noundef %153, i32 noundef 1)
  %155 = icmp ne i16 %154, 0
  br i1 %155, label %156, label %166

156:                                              ; preds = %149
  %157 = load ptr, ptr %17, align 8
  %158 = getelementptr inbounds i8, ptr %157, i64 3
  %159 = load ptr, ptr %7, align 8
  %160 = getelementptr inbounds i8, ptr %159, i64 2
  %161 = load i32, ptr %8, align 4
  %162 = sub i32 %161, 2
  %163 = zext i32 %162 to i64
  call void @llvm.memcpy.p0.p0.i64(ptr align 1 %158, ptr align 1 %160, i64 %163, i1 false)
  %164 = load ptr, ptr %17, align 8
  %165 = getelementptr inbounds i8, ptr %164, i64 0
  store i8 120, ptr %165, align 1
  br label %172

166:                                              ; preds = %149
  %167 = load ptr, ptr %17, align 8
  %168 = getelementptr inbounds i8, ptr %167, i64 1
  %169 = load ptr, ptr %7, align 8
  %170 = load i32, ptr %8, align 4
  %171 = zext i32 %170 to i64
  call void @llvm.memcpy.p0.p0.i64(ptr align 1 %168, ptr align 1 %169, i64 %171, i1 false)
  br label %172

172:                                              ; preds = %166, %156
  br label %188

173:                                              ; preds = %144
  %174 = load i16, ptr %10, align 2
  store i16 %174, ptr %15, align 2
  %175 = load ptr, ptr %17, align 8
  %176 = load ptr, ptr %7, align 8
  %177 = load i32, ptr %8, align 4
  %178 = zext i32 %177 to i64
  call void @llvm.memcpy.p0.p0.i64(ptr align 1 %175, ptr align 1 %176, i64 %178, i1 false)
  %179 = load ptr, ptr %7, align 8
  %180 = load i16, ptr %15, align 2
  %181 = load i32, ptr %8, align 4
  %182 = call zeroext i16 @cli_bcomp_chk_hex(ptr noundef %179, i16 noundef zeroext %180, i32 noundef %181, i32 noundef 1)
  %183 = icmp ne i16 %182, 0
  br i1 %183, label %184, label %187

184:                                              ; preds = %173
  %185 = load ptr, ptr %17, align 8
  %186 = getelementptr inbounds i8, ptr %185, i64 0
  store i8 120, ptr %186, align 1
  br label %187

187:                                              ; preds = %184, %173
  br label %188

188:                                              ; preds = %187, %172
  store i32 0, ptr %14, align 4
  br label %189

189:                                              ; preds = %298, %188
  %190 = load i32, ptr %14, align 4
  %191 = load i32, ptr %12, align 4
  %192 = icmp ult i32 %190, %191
  br i1 %192, label %193, label %301

193:                                              ; preds = %189
  %194 = load i32, ptr %12, align 4
  %195 = load i32, ptr %14, align 4
  %196 = sub nsw i32 %194, %195
  %197 = sub nsw i32 %196, 2
  %198 = icmp sge i32 %197, 0
  br i1 %198, label %199, label %248

199:                                              ; preds = %193
  %200 = call ptr @__ctype_b_loc() #10
  %201 = load ptr, ptr %200, align 8
  %202 = load ptr, ptr %17, align 8
  %203 = load i32, ptr %12, align 4
  %204 = load i32, ptr %14, align 4
  %205 = sub i32 %203, %204
  %206 = sub i32 %205, 2
  %207 = zext i32 %206 to i64
  %208 = getelementptr inbounds i8, ptr %202, i64 %207
  %209 = load i8, ptr %208, align 1
  %210 = zext i8 %209 to i32
  %211 = sext i32 %210 to i64
  %212 = getelementptr inbounds i16, ptr %201, i64 %211
  %213 = load i16, ptr %212, align 2
  %214 = zext i16 %213 to i32
  %215 = and i32 %214, 4096
  %216 = icmp ne i32 %215, 0
  br i1 %216, label %229, label %217

217:                                              ; preds = %199
  %218 = load ptr, ptr %17, align 8
  %219 = load i32, ptr %12, align 4
  %220 = load i32, ptr %14, align 4
  %221 = sub i32 %219, %220
  %222 = sub i32 %221, 2
  %223 = zext i32 %222 to i64
  %224 = getelementptr inbounds i8, ptr %218, i64 %223
  %225 = load i8, ptr %224, align 1
  %226 = zext i8 %225 to i32
  %227 = call i32 @toupper(i32 noundef %226) #9
  %228 = icmp eq i32 %227, 88
  br i1 %228, label %229, label %242

229:                                              ; preds = %217, %199
  %230 = load ptr, ptr %17, align 8
  %231 = load i32, ptr %12, align 4
  %232 = load i32, ptr %14, align 4
  %233 = sub i32 %231, %232
  %234 = sub i32 %233, 2
  %235 = zext i32 %234 to i64
  %236 = getelementptr inbounds i8, ptr %230, i64 %235
  %237 = load i8, ptr %236, align 1
  %238 = load ptr, ptr %16, align 8
  %239 = load i32, ptr %14, align 4
  %240 = zext i32 %239 to i64
  %241 = getelementptr inbounds i8, ptr %238, i64 %240
  store i8 %237, ptr %241, align 1
  br label %247

242:                                              ; preds = %217
  %243 = load ptr, ptr %16, align 8
  %244 = load i32, ptr %12, align 4
  %245 = add i32 %244, 1
  %246 = zext i32 %245 to i64
  call void @llvm.memset.p0.i64(ptr align 1 %243, i8 48, i64 %246, i1 false)
  br label %298

247:                                              ; preds = %229
  br label %248

248:                                              ; preds = %247, %193
  %249 = call ptr @__ctype_b_loc() #10
  %250 = load ptr, ptr %249, align 8
  %251 = load ptr, ptr %17, align 8
  %252 = load i32, ptr %12, align 4
  %253 = load i32, ptr %14, align 4
  %254 = sub i32 %252, %253
  %255 = sub i32 %254, 1
  %256 = zext i32 %255 to i64
  %257 = getelementptr inbounds i8, ptr %251, i64 %256
  %258 = load i8, ptr %257, align 1
  %259 = zext i8 %258 to i32
  %260 = sext i32 %259 to i64
  %261 = getelementptr inbounds i16, ptr %250, i64 %260
  %262 = load i16, ptr %261, align 2
  %263 = zext i16 %262 to i32
  %264 = and i32 %263, 4096
  %265 = icmp ne i32 %264, 0
  br i1 %265, label %278, label %266

266:                                              ; preds = %248
  %267 = load ptr, ptr %17, align 8
  %268 = load i32, ptr %12, align 4
  %269 = load i32, ptr %14, align 4
  %270 = sub i32 %268, %269
  %271 = sub i32 %270, 1
  %272 = zext i32 %271 to i64
  %273 = getelementptr inbounds i8, ptr %267, i64 %272
  %274 = load i8, ptr %273, align 1
  %275 = zext i8 %274 to i32
  %276 = call i32 @toupper(i32 noundef %275) #9
  %277 = icmp eq i32 %276, 88
  br i1 %277, label %278, label %292

278:                                              ; preds = %266, %248
  %279 = load ptr, ptr %17, align 8
  %280 = load i32, ptr %12, align 4
  %281 = load i32, ptr %14, align 4
  %282 = sub i32 %280, %281
  %283 = sub i32 %282, 1
  %284 = zext i32 %283 to i64
  %285 = getelementptr inbounds i8, ptr %279, i64 %284
  %286 = load i8, ptr %285, align 1
  %287 = load ptr, ptr %16, align 8
  %288 = load i32, ptr %14, align 4
  %289 = add i32 %288, 1
  %290 = zext i32 %289 to i64
  %291 = getelementptr inbounds i8, ptr %287, i64 %290
  store i8 %286, ptr %291, align 1
  br label %297

292:                                              ; preds = %266
  %293 = load ptr, ptr %16, align 8
  %294 = load i32, ptr %12, align 4
  %295 = add i32 %294, 1
  %296 = zext i32 %295 to i64
  call void @llvm.memset.p0.i64(ptr align 1 %293, i8 48, i64 %296, i1 false)
  br label %297

297:                                              ; preds = %292, %278
  br label %298

298:                                              ; preds = %297, %242
  %299 = load i32, ptr %14, align 4
  %300 = add i32 %299, 2
  store i32 %300, ptr %14, align 4
  br label %189

301:                                              ; preds = %189
  br label %302

302:                                              ; preds = %301, %138
  %303 = load ptr, ptr %16, align 8
  %304 = load i32, ptr %12, align 4
  %305 = zext i32 %304 to i64
  %306 = getelementptr inbounds i8, ptr %303, i64 %305
  store i8 0, ptr %306, align 1
  %307 = load ptr, ptr %17, align 8
  call void @free(ptr noundef %307) #8
  br label %308

308:                                              ; preds = %302, %95
  %309 = load ptr, ptr %16, align 8
  store ptr %309, ptr %6, align 8
  br label %310

310:                                              ; preds = %308, %125, %117, %84, %62, %20
  %311 = load ptr, ptr %6, align 8
  ret ptr %311
}