; Function Attrs: nounwind uwtable
define ptr @cli_bcomp_normalize_buffer(ptr noundef readonly %0, i32 noundef %1, ptr noundef writeonly %2, i16 noundef zeroext %3, i16 noundef zeroext %4) local_unnamed_addr #0 {
  %.not = icmp eq ptr %0, null
  br i1 %.not, label %6, label %7

6:                                                ; preds = %5
  tail call void (ptr, ...) @cli_errmsg(ptr noundef nonnull @.str.28) #14
  br label %106

7:                                                ; preds = %5
  %.not109 = icmp eq i16 %4, 0
  br i1 %.not109, label %30, label %.preheader

.preheader:                                       ; preds = %7
  %.not126 = icmp eq i32 %1, 0
  br i1 %.not126, label %._crit_edge, label %.lr.ph

.lr.ph:                                           ; preds = %.preheader
  %8 = tail call ptr @__ctype_b_loc() #16
  %9 = load ptr, ptr %8, align 8
  %wide.trip.count = zext i32 %1 to i64
  br label %10

10:                                               ; preds = %.lr.ph, %17
  %indvars.iv = phi i64 [ 0, %.lr.ph ], [ %indvars.iv.next, %17 ]
  %11 = getelementptr inbounds i8, ptr %0, i64 %indvars.iv
  %12 = load i8, ptr %11, align 1
  %13 = zext i8 %12 to i64
  %14 = getelementptr inbounds i16, ptr %9, i64 %13
  %15 = load i16, ptr %14, align 2
  %16 = and i16 %15, 8192
  %.not117 = icmp eq i16 %16, 0
  br i1 %.not117, label %._crit_edge.loopexit.split.loop.exit, label %17

17:                                               ; preds = %10
  %indvars.iv.next = add nuw nsw i64 %indvars.iv, 1
  %exitcond.not = icmp eq i64 %indvars.iv.next, %wide.trip.count
  br i1 %exitcond.not, label %._crit_edge, label %10

._crit_edge.loopexit.split.loop.exit:             ; preds = %10
  %indvars130.le = trunc i64 %indvars.iv to i32
  br label %._crit_edge

._crit_edge:                                      ; preds = %17, %._crit_edge.loopexit.split.loop.exit, %.preheader
  %.0100.lcssa = phi i32 [ 0, %.preheader ], [ %indvars130.le, %._crit_edge.loopexit.split.loop.exit ], [ %1, %17 ]
  %18 = sub i32 %1, %.0100.lcssa
  %19 = add i32 %18, 1
  %20 = zext i32 %19 to i64
  %21 = tail call ptr @cli_max_calloc(i64 noundef %20, i64 noundef 1) #14
  %22 = icmp eq ptr %21, null
  br i1 %22, label %23, label %24

23:                                               ; preds = %._crit_edge
  tail call void (ptr, ...) @cli_errmsg(ptr noundef nonnull @.str.29) #14
  br label %106

24:                                               ; preds = %._crit_edge
  tail call void @llvm.memset.p0.i64(ptr nonnull align 1 %21, i8 48, i64 %20, i1 false)
  %25 = zext i32 %.0100.lcssa to i64
  %26 = getelementptr inbounds i8, ptr %0, i64 %25
  %27 = zext i32 %18 to i64
  tail call void @llvm.memcpy.p0.p0.i64(ptr nonnull align 1 %21, ptr nonnull align 1 %26, i64 %27, i1 false)
  %28 = getelementptr inbounds i8, ptr %21, i64 %27
  store i8 0, ptr %28, align 1
  %.not118 = icmp eq ptr %2, null
  br i1 %.not118, label %106, label %29

29:                                               ; preds = %24
  store i32 %.0100.lcssa, ptr %2, align 4
  br label %106

30:                                               ; preds = %7
  %31 = and i16 %3, 9
  %or.cond = icmp eq i16 %31, 0
  br i1 %or.cond, label %106, label %32

32:                                               ; preds = %30
  %33 = and i32 %1, 1
  %34 = add i32 %33, %1
  %35 = add i32 %34, 1
  %36 = zext i32 %35 to i64
  %37 = tail call ptr @cli_max_calloc(i64 noundef %36, i64 noundef 1) #14
  %38 = icmp eq ptr %37, null
  br i1 %38, label %39, label %40

39:                                               ; preds = %32
  tail call void (ptr, ...) @cli_errmsg(ptr noundef nonnull @.str.30) #14
  br label %106

40:                                               ; preds = %32
  %41 = tail call ptr @cli_max_calloc(i64 noundef %36, i64 noundef 1) #14
  %42 = icmp eq ptr %41, null
  br i1 %42, label %43, label %44

43:                                               ; preds = %40
  tail call void @free(ptr noundef nonnull %37) #14
  tail call void (ptr, ...) @cli_errmsg(ptr noundef nonnull @.str.31) #14
  br label %106

44:                                               ; preds = %40
  tail call void @llvm.memset.p0.i64(ptr nonnull align 1 %37, i8 48, i64 %36, i1 false)
  tail call void @llvm.memset.p0.i64(ptr nonnull align 1 %41, i8 48, i64 %36, i1 false)
  %45 = icmp eq i32 %1, 1
  br i1 %45, label %46, label %48

46:                                               ; preds = %44
  %47 = load i8, ptr %0, align 1
  store i8 %47, ptr %37, align 1
  br label %.loopexit

48:                                               ; preds = %44
  %.not112 = icmp eq i32 %33, 0
  br i1 %.not112, label %59, label %49

49:                                               ; preds = %48
  %50 = tail call zeroext i16 @cli_bcomp_chk_hex(ptr noundef nonnull %0, i16 noundef zeroext %3, i32 noundef %1, i32 noundef 1)
  %.not114 = icmp eq i16 %50, 0
  br i1 %.not114, label %56, label %51

51:                                               ; preds = %49
  %52 = getelementptr inbounds i8, ptr %41, i64 3
  %53 = getelementptr inbounds i8, ptr %0, i64 2
  %54 = add i32 %1, -2
  %55 = zext i32 %54 to i64
  tail call void @llvm.memcpy.p0.p0.i64(ptr nonnull align 1 %52, ptr nonnull align 1 %53, i64 %55, i1 false)
  store i8 120, ptr %41, align 1
  br label %63

56:                                               ; preds = %49
  %57 = getelementptr inbounds i8, ptr %41, i64 1
  %58 = zext i32 %1 to i64
  tail call void @llvm.memcpy.p0.p0.i64(ptr nonnull align 1 %57, ptr nonnull align 1 %0, i64 %58, i1 false)
  br label %63

59:                                               ; preds = %48
  %60 = zext i32 %1 to i64
  tail call void @llvm.memcpy.p0.p0.i64(ptr nonnull align 1 %41, ptr nonnull align 1 %0, i64 %60, i1 false)
  %61 = tail call zeroext i16 @cli_bcomp_chk_hex(ptr noundef nonnull %0, i16 noundef zeroext %3, i32 noundef %1, i32 noundef 1)
  %.not113 = icmp eq i16 %61, 0
  br i1 %.not113, label %63, label %62

62:                                               ; preds = %59
  store i8 120, ptr %41, align 1
  br label %63

63:                                               ; preds = %59, %62, %51, %56
  %invariant.gep = getelementptr i8, ptr %41, i64 -2
  %.not127 = icmp eq i32 %34, 0
  br i1 %.not127, label %.loopexit, label %.lr.ph125.preheader

.lr.ph125.preheader:                              ; preds = %63
  %64 = tail call ptr @__ctype_b_loc() #16
  br label %.lr.ph125

.lr.ph125:                                        ; preds = %.lr.ph125.preheader, %101
  %.1123 = phi i32 [ %102, %101 ], [ 0, %.lr.ph125.preheader ]
  %65 = sub nsw i32 %34, %.1123
  %66 = icmp sgt i32 %65, 1
  br i1 %66, label %67, label %.lr.ph125._crit_edge

67:                                               ; preds = %.lr.ph125
  %68 = load ptr, ptr %64, align 8
  %69 = zext nneg i32 %65 to i64
  %gep = getelementptr i8, ptr %invariant.gep, i64 %69
  %70 = load i8, ptr %gep, align 1
  %71 = zext i8 %70 to i64
  %72 = getelementptr inbounds i16, ptr %68, i64 %71
  %73 = load i16, ptr %72, align 2
  %74 = and i16 %73, 4096
  %.not115 = icmp eq i16 %74, 0
  br i1 %.not115, label %75, label %79

75:                                               ; preds = %67
  %76 = zext i8 %70 to i32
  %77 = tail call i32 @toupper(i32 noundef %76) #15
  %78 = icmp eq i32 %77, 88
  br i1 %78, label %79, label %82

79:                                               ; preds = %75, %67
  %80 = zext i32 %.1123 to i64
  %81 = getelementptr inbounds i8, ptr %37, i64 %80
  store i8 %70, ptr %81, align 1
  br label %.lr.ph125._crit_edge

82:                                               ; preds = %75
  tail call void @llvm.memset.p0.i64(ptr nonnull align 1 %37, i8 48, i64 %36, i1 false)
  br label %101

.lr.ph125._crit_edge:                             ; preds = %.lr.ph125, %79
  %83 = load ptr, ptr %64, align 8
  %84 = add i32 %65, -1
  %85 = zext i32 %84 to i64
  %86 = getelementptr inbounds i8, ptr %41, i64 %85
  %87 = load i8, ptr %86, align 1
  %88 = zext i8 %87 to i64
  %89 = getelementptr inbounds i16, ptr %83, i64 %88
  %90 = load i16, ptr %89, align 2
  %91 = and i16 %90, 4096
  %.not116 = icmp eq i16 %91, 0
  br i1 %.not116, label %92, label %96

92:                                               ; preds = %.lr.ph125._crit_edge
  %93 = zext i8 %87 to i32
  %94 = tail call i32 @toupper(i32 noundef %93) #15
  %95 = icmp eq i32 %94, 88
  br i1 %95, label %96, label %100

96:                                               ; preds = %92, %.lr.ph125._crit_edge
  %97 = or disjoint i32 %.1123, 1
  %98 = zext i32 %97 to i64
  %99 = getelementptr inbounds i8, ptr %37, i64 %98
  store i8 %87, ptr %99, align 1
  br label %101

100:                                              ; preds = %92
  tail call void @llvm.memset.p0.i64(ptr nonnull align 1 %37, i8 48, i64 %36, i1 false)
  br label %101

101:                                              ; preds = %96, %100, %82
  %102 = add i32 %.1123, 2
  %103 = icmp ult i32 %102, %34
  br i1 %103, label %.lr.ph125, label %.loopexit

.loopexit:                                        ; preds = %101, %63, %46
  %104 = zext i32 %34 to i64
  %105 = getelementptr inbounds i8, ptr %37, i64 %104
  store i8 0, ptr %105, align 1
  tail call void @free(ptr noundef nonnull %41) #14
  br label %106

106:                                              ; preds = %.loopexit, %30, %24, %29, %43, %39, %23, %6
  %.0 = phi ptr [ null, %23 ], [ null, %39 ], [ null, %43 ], [ null, %6 ], [ %21, %29 ], [ %21, %24 ], [ %37, %.loopexit ], [ null, %30 ]
  ret ptr %.0
}